target datalayout = "e-m:e-p270:32:32-p271:32:32-p272:64:64-i64:64-i128:128-f80:128-n8:16:32:64-S128"
target triple = "x86_64-pc-linux-gnu"

%struct.uv_loop_s = type { ptr, i32, [2 x ptr], %union.anon, ptr, i32, i64, i32, [2 x ptr], [2 x ptr], ptr, i32, i32, [2 x ptr], %union.pthread_mutex_t, %struct.uv_async_s, %union.pthread_rwlock_t, ptr, [2 x ptr], [2 x ptr], [2 x ptr], [2 x ptr], [2 x ptr], ptr, %struct.uv__io_s, i32, %struct.anon, i64, i64, [2 x i32], %struct.uv__io_s, %struct.uv_signal_s, i32, %struct.uv__io_s, ptr, i32 }
%union.anon = type { ptr }
%union.pthread_mutex_t = type { %struct.__pthread_mutex_s }
%struct.__pthread_mutex_s = type { i32, i32, i32, i32, i32, i16, i16, %struct.__pthread_internal_list }
%struct.__pthread_internal_list = type { ptr, ptr }
%struct.uv_async_s = type { ptr, ptr, i32, ptr, [2 x ptr], %union.anon.0, ptr, i32, ptr, [2 x ptr], i32 }
%union.anon.0 = type { [4 x ptr] }
%union.pthread_rwlock_t = type { %struct.__pthread_rwlock_arch_t }
%struct.__pthread_rwlock_arch_t = type { i32, i32, i32, i32, i32, i32, i32, i32, i8, [7 x i8], i64, i32 }
%struct.anon = type { ptr, i32 }
%struct.uv_signal_s = type { ptr, ptr, i32, ptr, [2 x ptr], %union.anon.1, ptr, i32, ptr, i32, %struct.anon.2, i32, i32 }
%union.anon.1 = type { [4 x ptr] }
%struct.anon.2 = type { ptr, ptr, ptr, i32 }
%struct.uv__io_s = type { ptr, [2 x ptr], [2 x ptr], i32, i32, i32 }
%struct.uv__loop_internal_fields_s = type { i32, %struct.uv__loop_metrics_s }
%struct.uv__loop_metrics_s = type { i64, i64, %union.pthread_mutex_t }
%struct.__va_list_tag = type { i32, i32, ptr, ptr }

; Function Attrs: nounwind uwtable
define dso_local i32 @uv__loop_configure(ptr noundef %0, i32 noundef %1, ptr noundef %2) #0 {
  %4 = alloca i32, align 4
  %5 = alloca ptr, align 8
  %6 = alloca i32, align 4
  %7 = alloca ptr, align 8
  %8 = alloca ptr, align 8
  %9 = alloca i32, align 4
  store ptr %0, ptr %5, align 8, !tbaa !4
  store i32 %1, ptr %6, align 4, !tbaa !25
  store ptr %2, ptr %7, align 8, !tbaa !53
  call void @llvm.lifetime.start.p0(i64 8, ptr %8) #4
  %10 = load ptr, ptr %5, align 8, !tbaa !4
  %11 = getelementptr inbounds nuw %struct.uv_loop_s, ptr %10, i32 0, i32 4
  %12 = load ptr, ptr %11, align 8, !tbaa !24
  store ptr %12, ptr %8, align 8, !tbaa !22
  %13 = load i32, ptr %6, align 4, !tbaa !25
  %14 = icmp eq i32 %13, 1
  br i1 %14, label %15, label %20

15:                                               ; preds = %3
  %16 = load ptr, ptr %8, align 8, !tbaa !22
  %17 = getelementptr inbounds nuw %struct.uv__loop_internal_fields_s, ptr %16, i32 0, i32 0
  %18 = load i32, ptr %17, align 8, !tbaa !55
  %19 = or i32 %18, 1
  store i32 %19, ptr %17, align 8, !tbaa !55
  store i32 0, ptr %4, align 4
  store i32 1, ptr %9, align 4
  br label %48

20:                                               ; preds = %3
  %21 = load i32, ptr %6, align 4, !tbaa !25
  %22 = icmp ne i32 %21, 0
  br i1 %22, label %23, label %24

23:                                               ; preds = %20
  store i32 -38, ptr %4, align 4
  store i32 1, ptr %9, align 4
  br label %48

24:                                               ; preds = %20
  %25 = load ptr, ptr %7, align 8, !tbaa !53
  %26 = getelementptr inbounds nuw %struct.__va_list_tag, ptr %25, i32 0, i32 0
  %27 = load i32, ptr %26, align 8
  %28 = icmp ule i32 %27, 40
  br i1 %28, label %29, label %34

29:                                               ; preds = %24
  %30 = getelementptr inbounds nuw %struct.__va_list_tag, ptr %25, i32 0, i32 3
  %31 = load ptr, ptr %30, align 8
  %32 = getelementptr i8, ptr %31, i32 %27
  %33 = add i32 %27, 8
  store i32 %33, ptr %26, align 8
  br label %38

34:                                               ; preds = %24
  %35 = getelementptr inbounds nuw %struct.__va_list_tag, ptr %25, i32 0, i32 2
  %36 = load ptr, ptr %35, align 8
  %37 = getelementptr i8, ptr %36, i32 8
  store ptr %37, ptr %35, align 8
  br label %38

38:                                               ; preds = %34, %29
  %39 = phi ptr [ %32, %29 ], [ %36, %34 ]
  %40 = load i32, ptr %39, align 4, !tbaa !25
  %41 = icmp ne i32 %40, 27
  br i1 %41, label %42, label %43

42:                                               ; preds = %38
  store i32 -22, ptr %4, align 4
  store i32 1, ptr %9, align 4
  br label %48

43:                                               ; preds = %38
  %44 = load ptr, ptr %5, align 8, !tbaa !4
  %45 = getelementptr inbounds nuw %struct.uv_loop_s, ptr %44, i32 0, i32 6
  %46 = load i64, ptr %45, align 8, !tbaa !58
  %47 = or i64 %46, 1
  store i64 %47, ptr %45, align 8, !tbaa !58
  store i32 0, ptr %4, align 4
  store i32 1, ptr %9, align 4
  br label %48

48:                                               ; preds = %43, %42, %23, %15
  call void @llvm.lifetime.end.p0(i64 8, ptr %8) #4
  %49 = load i32, ptr %4, align 4
  ret i32 %49
}