; Function Attrs: mustprogress nofree norecurse nosync nounwind willreturn memory(readwrite, inaccessiblemem: none) uwtable
define dso_local range(i32 -38, 1) i32 @uv__loop_configure(ptr noundef captures(none) %0, i32 noundef %1, ptr noundef captures(none) %2) local_unnamed_addr #3 {
  switch i32 %1, label %29 [
    i32 1, label %4
    i32 0, label %9
  ]

4:                                                ; preds = %3
  %5 = getelementptr inbounds nuw i8, ptr %0, i64 40
  %6 = load ptr, ptr %5, align 8, !tbaa !20
  %7 = load i32, ptr %6, align 8, !tbaa !47
  %8 = or i32 %7, 1
  store i32 %8, ptr %6, align 8, !tbaa !47
  br label %29

9:                                                ; preds = %3
  %10 = load i32, ptr %2, align 8
  %11 = icmp ult i32 %10, 41
  br i1 %11, label %12, label %18

12:                                               ; preds = %9
  %13 = getelementptr inbounds nuw i8, ptr %2, i64 16
  %14 = load ptr, ptr %13, align 8
  %15 = zext nneg i32 %10 to i64
  %16 = getelementptr i8, ptr %14, i64 %15
  %17 = add nuw nsw i32 %10, 8
  store i32 %17, ptr %2, align 8
  br label %22

18:                                               ; preds = %9
  %19 = getelementptr inbounds nuw i8, ptr %2, i64 8
  %20 = load ptr, ptr %19, align 8
  %21 = getelementptr i8, ptr %20, i64 8
  store ptr %21, ptr %19, align 8
  br label %22

22:                                               ; preds = %18, %12
  %23 = phi ptr [ %16, %12 ], [ %20, %18 ]
  %24 = load i32, ptr %23, align 4, !tbaa !32
  %.not8 = icmp eq i32 %24, 27
  br i1 %.not8, label %25, label %29

25:                                               ; preds = %22
  %26 = getelementptr inbounds nuw i8, ptr %0, i64 56
  %27 = load i64, ptr %26, align 8, !tbaa !50
  %28 = or i64 %27, 1
  store i64 %28, ptr %26, align 8, !tbaa !50
  br label %29

29:                                               ; preds = %22, %3, %25, %4
  %.0 = phi i32 [ 0, %4 ], [ 0, %25 ], [ -38, %3 ], [ -22, %22 ]
  ret i32 %.0
}